
u-boot-spl:     file format elf32-littlearm


Disassembly of section .text:

00000000 <__image_copy_start>:
   0:	ea000013 	b	54 <reset>
   4:	e59ff014 	ldr	pc, [pc, #20]	; 20 <_undefined_instruction>
   8:	e59ff014 	ldr	pc, [pc, #20]	; 24 <_software_interrupt>
   c:	e59ff014 	ldr	pc, [pc, #20]	; 28 <_prefetch_abort>
  10:	e59ff014 	ldr	pc, [pc, #20]	; 2c <_data_abort>
  14:	e59ff014 	ldr	pc, [pc, #20]	; 30 <_not_used>
  18:	e59ff014 	ldr	pc, [pc, #20]	; 34 <_irq>
  1c:	e59ff014 	ldr	pc, [pc, #20]	; 38 <_fiq>

00000020 <_undefined_instruction>:
  20:	00000020 	andeq	r0, r0, r0, lsr #32

00000024 <_software_interrupt>:
  24:	00000024 	andeq	r0, r0, r4, lsr #32

00000028 <_prefetch_abort>:
  28:	00000028 	andeq	r0, r0, r8, lsr #32

0000002c <_data_abort>:
  2c:	0000002c 	andeq	r0, r0, ip, lsr #32

00000030 <_not_used>:
  30:	00000030 	andeq	r0, r0, r0, lsr r0

00000034 <_irq>:
  34:	00000034 	andeq	r0, r0, r4, lsr r0

00000038 <_fiq>:
  38:	00000038 	andeq	r0, r0, r8, lsr r0

0000003c <_pad>:
  3c:	12345678 	eorsne	r5, r4, #125829120	; 0x7800000

00000040 <_TEXT_BASE>:
  40:	35000000 	strcc	r0, [r0]

00000044 <_bss_start_ofs>:
  44:	00000518 	andeq	r0, r0, r8, lsl r5

00000048 <_bss_end_ofs>:
  48:	00000518 	andeq	r0, r0, r8, lsl r5

0000004c <_end_ofs>:
  4c:	00000518 	andeq	r0, r0, r8, lsl r5

00000050 <IRQ_STACK_START_IN>:
  50:	0badc0de 	bleq	feb703d0 <__image_copy_end+0xfeb6feb8>

00000054 <reset>:
  54:	e59f00a8 	ldr	r0, [pc, #168]	; 104 <cpu_init_crit+0x4>
  58:	e59f10a8 	ldr	r1, [pc, #168]	; 108 <cpu_init_crit+0x8>
  5c:	e3a02000 	mov	r2, #0

00000060 <clear_bss>:
  60:	e4802004 	str	r2, [r0], #4
  64:	e1500001 	cmp	r0, r1
  68:	1afffffc 	bne	60 <clear_bss>
  6c:	eb000014 	bl	c4 <save_boot_params>
  70:	e10f0000 	mrs	r0, CPSR
  74:	e200101f 	and	r1, r0, #31
  78:	e331001a 	teq	r1, #26
  7c:	13c0001f 	bicne	r0, r0, #31
  80:	13800013 	orrne	r0, r0, #19
  84:	e38000c0 	orr	r0, r0, #192	; 0xc0
  88:	e129f000 	msr	CPSR_fc, r0
  8c:	ee110f10 	mrc	15, 0, r0, cr1, cr0, {0}
  90:	e3c00a02 	bic	r0, r0, #8192	; 0x2000
  94:	ee010f10 	mcr	15, 0, r0, cr1, cr0, {0}
  98:	e59f006c 	ldr	r0, [pc, #108]	; 10c <cpu_init_crit+0xc>
  9c:	ee0c0f10 	mcr	15, 0, r0, cr12, cr0, {0}
  a0:	eb000008 	bl	c8 <cpu_init_cp15>
  a4:	eb000015 	bl	100 <cpu_init_crit>
  a8:	eb000018 	bl	110 <_main>

000000ac <c_runtime_cpu_setup>:
  ac:	ee070f15 	mcr	15, 0, r0, cr7, cr5, {0}
  b0:	ee070f9a 	mcr	15, 0, r0, cr7, cr10, {4}
  b4:	ee070f95 	mcr	15, 0, r0, cr7, cr5, {4}
  b8:	e59f004c 	ldr	r0, [pc, #76]	; 10c <cpu_init_crit+0xc>
  bc:	ee0c0f10 	mcr	15, 0, r0, cr12, cr0, {0}
  c0:	e12fff1e 	bx	lr

000000c4 <save_boot_params>:
  c4:	e12fff1e 	bx	lr

000000c8 <cpu_init_cp15>:
  c8:	e3a00000 	mov	r0, #0
  cc:	ee080f17 	mcr	15, 0, r0, cr8, cr7, {0}
  d0:	ee070f15 	mcr	15, 0, r0, cr7, cr5, {0}
  d4:	ee070fd5 	mcr	15, 0, r0, cr7, cr5, {6}
  d8:	ee070f9a 	mcr	15, 0, r0, cr7, cr10, {4}
  dc:	ee070f95 	mcr	15, 0, r0, cr7, cr5, {4}
  e0:	ee110f10 	mrc	15, 0, r0, cr1, cr0, {0}
  e4:	e3c00a02 	bic	r0, r0, #8192	; 0x2000
  e8:	e3c00007 	bic	r0, r0, #7
  ec:	e3800002 	orr	r0, r0, #2
  f0:	e3800b02 	orr	r0, r0, #2048	; 0x800
  f4:	e3800a01 	orr	r0, r0, #4096	; 0x1000
  f8:	ee010f10 	mcr	15, 0, r0, cr1, cr0, {0}
  fc:	e1a0f00e 	mov	pc, lr

00000100 <cpu_init_crit>:
 100:	ea00003a 	b	1f0 <lowlevel_init>
 104:	00000518 	andeq	r0, r0, r8, lsl r5
 108:	00000518 	andeq	r0, r0, r8, lsl r5
 10c:	00000000 	andeq	r0, r0, r0

00000110 <_main>:
 110:	e3a0d203 	mov	sp, #805306368	; 0x30000000
 114:	e3cdd007 	bic	sp, sp, #7
 118:	e24dd0a0 	sub	sp, sp, #160	; 0xa0
 11c:	e3cdd007 	bic	sp, sp, #7
 120:	e1a0900d 	mov	r9, sp
 124:	e3a00000 	mov	r0, #0
 128:	eb00002a 	bl	1d8 <board_init_f>

0000012c <uart_init>:
 12c:	e59f3028 	ldr	r3, [pc, #40]	; 15c <uart_init+0x30>
 130:	e3a02022 	mov	r2, #34	; 0x22
 134:	e5832000 	str	r2, [r3]
 138:	e3a01003 	mov	r1, #3
 13c:	e2833627 	add	r3, r3, #40894464	; 0x2700000
 140:	e5831000 	str	r1, [r3]
 144:	e2811002 	add	r1, r1, #2
 148:	e5831004 	str	r1, [r3, #4]
 14c:	e5832028 	str	r2, [r3, #40]	; 0x28
 150:	e30d2ddd 	movw	r2, #56797	; 0xdddd
 154:	e583202c 	str	r2, [r3, #44]	; 0x2c
 158:	e12fff1e 	bx	lr
 15c:	e0200000 	eor	r0, r0, r0

00000160 <putc>:
 160:	e59f3014 	ldr	r3, [pc, #20]	; 17c <putc+0x1c>
 164:	e5932010 	ldr	r2, [r3, #16]
 168:	e3120004 	tst	r2, #4
 16c:	0afffffc 	beq	164 <putc+0x4>
 170:	e59f3004 	ldr	r3, [pc, #4]	; 17c <putc+0x1c>
 174:	e5c30020 	strb	r0, [r3, #32]
 178:	e12fff1e 	bx	lr
 17c:	e2900000 	adds	r0, r0, #0

00000180 <copy_uboot_to_ram>:
 180:	e59f304c 	ldr	r3, [pc, #76]	; 1d4 <copy_uboot_to_ram+0x54>
 184:	e92d4013 	push	{r0, r1, r4, lr}
 188:	e5932488 	ldr	r2, [r3, #1160]	; 0x488
 18c:	e593cf98 	ldr	ip, [r3, #3992]	; 0xf98
 190:	e35204eb 	cmp	r2, #-352321536	; 0xeb000000
 194:	1a00000a 	bne	1c4 <copy_uboot_to_ram+0x44>
 198:	e3a00000 	mov	r0, #0
 19c:	e3a01031 	mov	r1, #49	; 0x31
 1a0:	e3a02b01 	mov	r2, #1024	; 0x400
 1a4:	e3a03435 	mov	r3, #889192448	; 0x35000000
 1a8:	e58d0000 	str	r0, [sp]
 1ac:	e12fff3c 	blx	ip
 1b0:	e1a04000 	mov	r4, r0
 1b4:	e3a0004a 	mov	r0, #74	; 0x4a
 1b8:	ebffffe8 	bl	160 <putc>
 1bc:	e3a0000a 	mov	r0, #10
 1c0:	ebffffe6 	bl	160 <putc>
 1c4:	e3540000 	cmp	r4, #0
 1c8:	1a000000 	bne	1d0 <copy_uboot_to_ram+0x50>
 1cc:	eafffffe 	b	1cc <copy_uboot_to_ram+0x4c>
 1d0:	e8bd801c 	pop	{r2, r3, r4, pc}
 1d4:	d0037000 	andle	r7, r3, r0

000001d8 <board_init_f>:
 1d8:	e92d4008 	push	{r3, lr}
 1dc:	ebffffd2 	bl	12c <uart_init>
 1e0:	ebffffe6 	bl	180 <copy_uboot_to_ram>
 1e4:	e3a03435 	mov	r3, #889192448	; 0x35000000
 1e8:	e12fff33 	blx	r3

000001ec <_TEXT_BASE>:
 1ec:	35000000 	strcc	r0, [r0]

000001f0 <lowlevel_init>:
 1f0:	e1a0900e 	mov	r9, lr
 1f4:	eb000041 	bl	300 <mem_ctrl_asm_init>
 1f8:	e1a0e009 	mov	lr, r9
 1fc:	e1a0f00e 	mov	pc, lr

00000200 <system_clock_init>:
 200:	e59f80c0 	ldr	r8, [pc, #192]	; 2c8 <tzpc_asm_init+0x38>
 204:	e59f10c0 	ldr	r1, [pc, #192]	; 2cc <tzpc_asm_init+0x3c>
 208:	e5881304 	str	r1, [r8, #772]	; 0x304
 20c:	e3a01001 	mov	r1, #1
 210:	e5881308 	str	r1, [r8, #776]	; 0x308
 214:	e59f10b4 	ldr	r1, [pc, #180]	; 2d0 <tzpc_asm_init+0x40>
 218:	e5881300 	str	r1, [r8, #768]	; 0x300
 21c:	e3a01ee1 	mov	r1, #3600	; 0xe10
 220:	e5881000 	str	r1, [r8]
 224:	e5881004 	str	r1, [r8, #4]
 228:	e5881008 	str	r1, [r8, #8]
 22c:	e588100c 	str	r1, [r8, #12]
 230:	e59f109c 	ldr	r1, [pc, #156]	; 2d4 <tzpc_asm_init+0x44>
 234:	e5881100 	str	r1, [r8, #256]	; 0x100
 238:	e59f1098 	ldr	r1, [pc, #152]	; 2d8 <tzpc_asm_init+0x48>
 23c:	e5881104 	str	r1, [r8, #260]	; 0x104
 240:	e59f1094 	ldr	r1, [pc, #148]	; 2dc <tzpc_asm_init+0x4c>
 244:	e5881108 	str	r1, [r8, #264]	; 0x108
 248:	e59f1090 	ldr	r1, [pc, #144]	; 2e0 <tzpc_asm_init+0x50>
 24c:	e588110c 	str	r1, [r8, #268]	; 0x10c
 250:	e59f108c 	ldr	r1, [pc, #140]	; 2e4 <tzpc_asm_init+0x54>
 254:	e5881200 	str	r1, [r8, #512]	; 0x200
 258:	e59f1088 	ldr	r1, [pc, #136]	; 2e8 <tzpc_asm_init+0x58>
 25c:	e5881204 	str	r1, [r8, #516]	; 0x204
 260:	e3a01a09 	mov	r1, #36864	; 0x9000
 264:	e5881400 	str	r1, [r8, #1024]	; 0x400
 268:	e3a02801 	mov	r2, #65536	; 0x10000
 26c:	e2522001 	subs	r2, r2, #1
 270:	1afffffd 	bne	26c <system_clock_init+0x6c>
 274:	e1a0f00e 	mov	pc, lr

00000278 <uart_asm_init>:
 278:	e1a00008 	mov	r0, r8
 27c:	e59f1068 	ldr	r1, [pc, #104]	; 2ec <tzpc_asm_init+0x5c>
 280:	e5801000 	str	r1, [r0]
 284:	e59f1064 	ldr	r1, [pc, #100]	; 2f0 <tzpc_asm_init+0x60>
 288:	e5801020 	str	r1, [r0, #32]
 28c:	e1a0f00e 	mov	pc, lr

00000290 <tzpc_asm_init>:
 290:	e59f005c 	ldr	r0, [pc, #92]	; 2f4 <tzpc_asm_init+0x64>
 294:	e3a01000 	mov	r1, #0
 298:	e5801000 	str	r1, [r0]
 29c:	e3a010ff 	mov	r1, #255	; 0xff
 2a0:	e5801804 	str	r1, [r0, #2052]	; 0x804
 2a4:	e5801810 	str	r1, [r0, #2064]	; 0x810
 2a8:	e59f0048 	ldr	r0, [pc, #72]	; 2f8 <tzpc_asm_init+0x68>
 2ac:	e5801804 	str	r1, [r0, #2052]	; 0x804
 2b0:	e5801810 	str	r1, [r0, #2064]	; 0x810
 2b4:	e580181c 	str	r1, [r0, #2076]	; 0x81c
 2b8:	e59f003c 	ldr	r0, [pc, #60]	; 2fc <tzpc_asm_init+0x6c>
 2bc:	e5801804 	str	r1, [r0, #2052]	; 0x804
 2c0:	e5801810 	str	r1, [r0, #2064]	; 0x810
 2c4:	e1a0f00e 	mov	pc, lr
 2c8:	e0100000 	ands	r0, r0, r0
 2cc:	00011110 	andeq	r1, r1, r0, lsl r1
 2d0:	00011301 	andeq	r1, r1, r1, lsl #6
 2d4:	81bc0400 	undefined instruction 0x81bc0400
 2d8:	80590201 	subshi	r0, r9, r1, lsl #4
 2dc:	80870303 	addhi	r0, r7, r3, lsl #6
 2e0:	80600603 	rsbhi	r0, r0, r3, lsl #12
 2e4:	00001111 	andeq	r1, r0, r1, lsl r1
 2e8:	01000001 	tsteq	r0, r1
 2ec:	22222222 	eorcs	r2, r2, #536870914	; 0x20000002
 2f0:	00022222 	andeq	r2, r2, r2, lsr #4
 2f4:	e3800000 	orr	r0, r0, #0
 2f8:	e2800000 	add	r0, r0, #0
 2fc:	e2900000 	adds	r0, r0, #0

00000300 <mem_ctrl_asm_init>:
 300:	e59f01b4 	ldr	r0, [pc, #436]	; 4bc <find_lock_val+0x14c>
 304:	e59f11b4 	ldr	r1, [pc, #436]	; 4c0 <find_lock_val+0x150>
 308:	e58013cc 	str	r1, [r0, #972]	; 0x3cc
 30c:	e59f11ac 	ldr	r1, [pc, #428]	; 4c0 <find_lock_val+0x150>
 310:	e58013ec 	str	r1, [r0, #1004]	; 0x3ec
 314:	e59f11a4 	ldr	r1, [pc, #420]	; 4c0 <find_lock_val+0x150>
 318:	e580140c 	str	r1, [r0, #1036]	; 0x40c
 31c:	e59f119c 	ldr	r1, [pc, #412]	; 4c0 <find_lock_val+0x150>
 320:	e580142c 	str	r1, [r0, #1068]	; 0x42c
 324:	e59f1194 	ldr	r1, [pc, #404]	; 4c0 <find_lock_val+0x150>
 328:	e580144c 	str	r1, [r0, #1100]	; 0x44c
 32c:	e59f118c 	ldr	r1, [pc, #396]	; 4c0 <find_lock_val+0x150>
 330:	e580146c 	str	r1, [r0, #1132]	; 0x46c
 334:	e59f1184 	ldr	r1, [pc, #388]	; 4c0 <find_lock_val+0x150>
 338:	e580148c 	str	r1, [r0, #1164]	; 0x48c
 33c:	e59f117c 	ldr	r1, [pc, #380]	; 4c0 <find_lock_val+0x150>
 340:	e58014ac 	str	r1, [r0, #1196]	; 0x4ac
 344:	e59f1178 	ldr	r1, [pc, #376]	; 4c4 <find_lock_val+0x154>
 348:	e58014cc 	str	r1, [r0, #1228]	; 0x4cc
 34c:	e3a0020f 	mov	r0, #-268435456	; 0xf0000000
 350:	e59f1170 	ldr	r1, [pc, #368]	; 4c8 <find_lock_val+0x158>
 354:	e5801018 	str	r1, [r0, #24]
 358:	e3a01086 	mov	r1, #134	; 0x86
 35c:	e580101c 	str	r1, [r0, #28]
 360:	e59f1164 	ldr	r1, [pc, #356]	; 4cc <find_lock_val+0x15c>
 364:	e5801018 	str	r1, [r0, #24]
 368:	e59f1160 	ldr	r1, [pc, #352]	; 4d0 <find_lock_val+0x160>
 36c:	e5801018 	str	r1, [r0, #24]

00000370 <find_lock_val>:
 370:	e5901040 	ldr	r1, [r0, #64]	; 0x40
 374:	e2012007 	and	r2, r1, #7
 378:	e3520007 	cmp	r2, #7
 37c:	1afffffb 	bne	370 <find_lock_val>
 380:	e2011dff 	and	r1, r1, #16320	; 0x3fc0
 384:	e1a02901 	lsl	r2, r1, #18
 388:	e3822601 	orr	r2, r2, #1048576	; 0x100000
 38c:	e3822a01 	orr	r2, r2, #4096	; 0x1000
 390:	e3821003 	orr	r1, r2, #3
 394:	e5801018 	str	r1, [r0, #24]
 398:	e59f1134 	ldr	r1, [pc, #308]	; 4d4 <find_lock_val+0x164>
 39c:	e5801000 	str	r1, [r0]
 3a0:	e59f1130 	ldr	r1, [pc, #304]	; 4d8 <find_lock_val+0x168>
 3a4:	e5801004 	str	r1, [r0, #4]
 3a8:	e59f112c 	ldr	r1, [pc, #300]	; 4dc <find_lock_val+0x16c>
 3ac:	e5801008 	str	r1, [r0, #8]
 3b0:	e59f1128 	ldr	r1, [pc, #296]	; 4e0 <find_lock_val+0x170>
 3b4:	e580100c 	str	r1, [r0, #12]
 3b8:	e3a014ff 	mov	r1, #-16777216	; 0xff000000
 3bc:	e5801014 	str	r1, [r0, #20]
 3c0:	e59f111c 	ldr	r1, [pc, #284]	; 4e4 <find_lock_val+0x174>
 3c4:	e5801030 	str	r1, [r0, #48]	; 0x30
 3c8:	e59f1118 	ldr	r1, [pc, #280]	; 4e8 <find_lock_val+0x178>
 3cc:	e5801034 	str	r1, [r0, #52]	; 0x34
 3d0:	e59f1114 	ldr	r1, [pc, #276]	; 4ec <find_lock_val+0x17c>
 3d4:	e5801038 	str	r1, [r0, #56]	; 0x38
 3d8:	e59f1110 	ldr	r1, [pc, #272]	; 4f0 <find_lock_val+0x180>
 3dc:	e580103c 	str	r1, [r0, #60]	; 0x3c
 3e0:	e3a01407 	mov	r1, #117440512	; 0x7000000
 3e4:	e5801010 	str	r1, [r0, #16]
 3e8:	e3a01401 	mov	r1, #16777216	; 0x1000000
 3ec:	e5801010 	str	r1, [r0, #16]
 3f0:	e3a01802 	mov	r1, #131072	; 0x20000
 3f4:	e5801010 	str	r1, [r0, #16]
 3f8:	e3a01803 	mov	r1, #196608	; 0x30000
 3fc:	e5801010 	str	r1, [r0, #16]
 400:	e3a01b41 	mov	r1, #66560	; 0x10400
 404:	e5801010 	str	r1, [r0, #16]
 408:	e59f10e4 	ldr	r1, [pc, #228]	; 4f4 <find_lock_val+0x184>
 40c:	e5801010 	str	r1, [r0, #16]
 410:	e3a01401 	mov	r1, #16777216	; 0x1000000
 414:	e5801010 	str	r1, [r0, #16]
 418:	e3a01405 	mov	r1, #83886080	; 0x5000000
 41c:	e5801010 	str	r1, [r0, #16]
 420:	e3a01405 	mov	r1, #83886080	; 0x5000000
 424:	e5801010 	str	r1, [r0, #16]
 428:	e59f10c8 	ldr	r1, [pc, #200]	; 4f8 <find_lock_val+0x188>
 42c:	e5801010 	str	r1, [r0, #16]
 430:	e59f10c4 	ldr	r1, [pc, #196]	; 4fc <find_lock_val+0x18c>
 434:	e5801010 	str	r1, [r0, #16]
 438:	e3a01b41 	mov	r1, #66560	; 0x10400
 43c:	e5801010 	str	r1, [r0, #16]
 440:	e3a01671 	mov	r1, #118489088	; 0x7100000
 444:	e5801010 	str	r1, [r0, #16]
 448:	e3a01611 	mov	r1, #17825792	; 0x1100000
 44c:	e5801010 	str	r1, [r0, #16]
 450:	e3a01812 	mov	r1, #1179648	; 0x120000
 454:	e5801010 	str	r1, [r0, #16]
 458:	e3a01813 	mov	r1, #1245184	; 0x130000
 45c:	e5801010 	str	r1, [r0, #16]
 460:	e59f1098 	ldr	r1, [pc, #152]	; 500 <find_lock_val+0x190>
 464:	e5801010 	str	r1, [r0, #16]
 468:	e59f1094 	ldr	r1, [pc, #148]	; 504 <find_lock_val+0x194>
 46c:	e5801010 	str	r1, [r0, #16]
 470:	e3a01611 	mov	r1, #17825792	; 0x1100000
 474:	e5801010 	str	r1, [r0, #16]
 478:	e3a01651 	mov	r1, #84934656	; 0x5100000
 47c:	e5801010 	str	r1, [r0, #16]
 480:	e3a01651 	mov	r1, #84934656	; 0x5100000
 484:	e5801010 	str	r1, [r0, #16]
 488:	e59f1078 	ldr	r1, [pc, #120]	; 508 <find_lock_val+0x198>
 48c:	e5801010 	str	r1, [r0, #16]
 490:	e59f1074 	ldr	r1, [pc, #116]	; 50c <find_lock_val+0x19c>
 494:	e5801010 	str	r1, [r0, #16]
 498:	e59f1060 	ldr	r1, [pc, #96]	; 500 <find_lock_val+0x190>
 49c:	e5801010 	str	r1, [r0, #16]
 4a0:	e59f1068 	ldr	r1, [pc, #104]	; 510 <find_lock_val+0x1a0>
 4a4:	e5801000 	str	r1, [r0]
 4a8:	e3e01cff 	mvn	r1, #65280	; 0xff00
 4ac:	e5801028 	str	r1, [r0, #40]	; 0x28
 4b0:	e59f105c 	ldr	r1, [pc, #92]	; 514 <find_lock_val+0x1a4>
 4b4:	e5801004 	str	r1, [r0, #4]
 4b8:	e1a0f00e 	mov	pc, lr
 4bc:	e0200000 	eor	r0, r0, r0
 4c0:	0000aaaa 	andeq	sl, r0, sl, lsr #21
 4c4:	00002aaa 	andeq	r2, r0, sl, lsr #21
 4c8:	00101000 	andseq	r1, r0, r0
 4cc:	00101002 	andseq	r1, r0, r2
 4d0:	00101003 	andseq	r1, r0, r3
 4d4:	0fff2010 	svceq	0x00ff2010
 4d8:	00212400 	eoreq	r2, r1, r0, lsl #8
 4dc:	20e00323 	rsccs	r0, r0, r3, lsr #6
 4e0:	00e00323 	rsceq	r0, r0, r3, lsr #6
 4e4:	00000618 	andeq	r0, r0, r8, lsl r6
 4e8:	2b34438a 	blcs	d11318 <__image_copy_end+0xd10e00>
 4ec:	24240000 	strtcs	r0, [r4]
 4f0:	0bdc0343 	bleq	ff701204 <__image_copy_end+0xff700cec>
 4f4:	00000542 	andeq	r0, r0, r2, asr #10
 4f8:	00000442 	andeq	r0, r0, r2, asr #8
 4fc:	00010780 	andeq	r0, r1, r0, lsl #15
 500:	00110400 	andseq	r0, r1, r0, lsl #8
 504:	00100542 	andseq	r0, r0, r2, asr #10
 508:	00100442 	andseq	r0, r0, r2, asr #8
 50c:	00110780 	andseq	r0, r1, r0, lsl #15
 510:	0ff02030 	svceq	0x00f02030
 514:	00202400 	eoreq	r2, r0, r0, lsl #8
